(dp0
(S'you'
p1
S'are'
p2
tp3
(lp4
S'looking'
p5
as(S'friend'
p6
g1
tp7
(lp8
g2
as(S'my'
p9
g6
tp10
(lp11
g1
as(S'there'
p12
g9
tp13
(lp14
g6
as(S'hello'
p15
g12
tp16
(lp17
g9
as(S'mighty'
p18
S'fine'
p19
tp20
(lp21
S'today'
p22
as(g2
g5
tp23
(lp24
g18
as(g5
g18
tp25
(lp26
g19
as.